; Function Attrs: null_pointer_is_valid sspstrong uwtable
define ptr @oid_subid2string(ptr noundef %0, ptr noundef readonly captures(address_is_null) %1, i32 noundef %2) local_unnamed_addr #0 {
  %4 = icmp eq ptr %1, null
  %5 = icmp eq i32 %2, 0
  %or.cond.i = or i1 %4, %5
  br i1 %or.cond.i, label %6, label %8

6:                                                ; preds = %3
  %7 = tail call noalias ptr @wmem_strdup(ptr noundef %0, ptr noundef nonnull @.str.16)
  br label %rel_oid_subid2string.exit

8:                                                ; preds = %3
  %9 = tail call noalias ptr @wmem_strbuf_new(ptr noundef %0, ptr noundef nonnull @.str.17)
  br label %10

10:                                               ; preds = %10, %8
  %.015.i = phi i32 [ %2, %8 ], [ %13, %10 ]
  %.014.i = phi ptr [ %1, %8 ], [ %11, %10 ]
  %11 = getelementptr i8, ptr %.014.i, i64 4
  %12 = load i32, ptr %.014.i, align 4
  tail call void (ptr, ptr, ...) @wmem_strbuf_append_printf(ptr noundef %9, ptr noundef nonnull @.str.18, i32 noundef %12)
  %13 = add i32 %.015.i, -1
  %.not.i = icmp eq i32 %13, 0
  br i1 %.not.i, label %14, label %10, !llvm.loop !6

14:                                               ; preds = %10
  %15 = tail call i64 @wmem_strbuf_get_len(ptr noundef %9)
  %16 = add i64 %15, -1
  tail call void @wmem_strbuf_truncate(ptr noundef %9, i64 noundef %16)
  %17 = tail call ptr @wmem_strbuf_finalize(ptr noundef %9)
  br label %rel_oid_subid2string.exit

rel_oid_subid2string.exit:                        ; preds = %6, %14
  %.0.i = phi ptr [ %7, %6 ], [ %17, %14 ]
  ret ptr %.0.i
}